
function.o：     文件格式 elf64-x86-64


Disassembly of section .text:

0000000000000000 <add>:
   0:	55                   	push   %rbp
   1:	48 89 e5             	mov    %rsp,%rbp
   4:	f3 0f 11 45 ec       	movss  %xmm0,-0x14(%rbp)
   9:	f3 0f 11 4d e8       	movss  %xmm1,-0x18(%rbp)
   e:	f3 0f 10 45 ec       	movss  -0x14(%rbp),%xmm0
  13:	f3 0f 58 45 e8       	addss  -0x18(%rbp),%xmm0
  18:	f3 0f 11 45 fc       	movss  %xmm0,-0x4(%rbp)
  1d:	8b 45 fc             	mov    -0x4(%rbp),%eax
  20:	89 45 e4             	mov    %eax,-0x1c(%rbp)
  23:	f3 0f 10 45 e4       	movss  -0x1c(%rbp),%xmm0
  28:	c9                   	leave  
  29:	c3                   	ret    

000000000000002a <add_and_multiply>:
  2a:	55                   	push   %rbp
  2b:	48 89 e5             	mov    %rsp,%rbp
  2e:	48 83 ec 20          	sub    $0x20,%rsp
  32:	f3 0f 11 45 ec       	movss  %xmm0,-0x14(%rbp)
  37:	f3 0f 11 4d e8       	movss  %xmm1,-0x18(%rbp)
  3c:	f3 0f 10 4d e8       	movss  -0x18(%rbp),%xmm1
  41:	f3 0f 10 45 ec       	movss  -0x14(%rbp),%xmm0
  46:	e8 00 00 00 00       	call   4b <add_and_multiply+0x21>
  4b:	f3 0f 11 45 fc       	movss  %xmm0,-0x4(%rbp)
  50:	f3 0f 10 4d fc       	movss  -0x4(%rbp),%xmm1
  55:	f3 0f 10 05 00 00 00 	movss  0x0(%rip),%xmm0        # 5d <add_and_multiply+0x33>
  5c:	00 
  5d:	f3 0f 59 c1          	mulss  %xmm1,%xmm0
  61:	f3 0f 11 45 fc       	movss  %xmm0,-0x4(%rbp)
  66:	8b 45 fc             	mov    -0x4(%rbp),%eax
  69:	89 45 e4             	mov    %eax,-0x1c(%rbp)
  6c:	f3 0f 10 45 e4       	movss  -0x1c(%rbp),%xmm0
  71:	c9                   	leave  
  72:	c3                   	ret    
